target datalayout = "e-m:e-p270:32:32-p271:32:32-p272:64:64-i64:64-i128:128-f80:128-n8:16:32:64-S128"
target triple = "x86_64-pc-linux-gnu"

%struct.ShowCQTContext = type { ptr, ptr, ptr, ptr, i32, i32, i32, i32, %struct.AVRational, i32, i32, i32, i64, ptr, ptr, ptr, ptr, ptr, ptr, ptr, ptr, ptr, i32, i32, i32, i32, ptr, ptr, ptr, ptr, ptr, [3 x [3 x float]], [6 x float], ptr, ptr, ptr, ptr, ptr, ptr, i64, i64, i64, i64, i64, i64, i64, i64, i32, i32, %struct.AVRational, i32, i32, i32, i32, ptr, ptr, float, float, float, double, double, double, double, float, ptr, i32, i32, ptr, ptr, ptr, ptr, i32, i32, ptr }
%struct.AVRational = type { i32, i32 }

; Function Attrs: nounwind uwtable
define internal i32 @convert_axis_pixel_format(i32 noundef %0) #1 {
  %2 = alloca i32, align 4
  store i32 %0, ptr %2, align 4, !tbaa !50
  %3 = load i32, ptr %2, align 4, !tbaa !50
  switch i32 %3, label %6 [
    i32 2, label %4
    i32 5, label %5
    i32 4, label %5
    i32 0, label %5
  ]

4:                                                ; preds = %1
  store i32 26, ptr %2, align 4, !tbaa !50
  br label %6

5:                                                ; preds = %1, %1, %1
  store i32 79, ptr %2, align 4, !tbaa !50
  br label %6

6:                                                ; preds = %1, %5, %4
  %7 = load i32, ptr %2, align 4, !tbaa !50
  ret i32 %7
}

; Function Attrs: nounwind uwtable
define internal i32 @init_axis_empty(ptr noundef %0) #1 {
  %2 = alloca i32, align 4
  %3 = alloca ptr, align 8
  store ptr %0, ptr %3, align 8, !tbaa !22
  %4 = load ptr, ptr %3, align 8, !tbaa !22
  %5 = getelementptr inbounds nuw %struct.ShowCQTContext, ptr %4, i32 0, i32 4
  %6 = load i32, ptr %5, align 8, !tbaa !74
  %7 = call i32 @convert_axis_pixel_format(i32 noundef %6)
  %8 = load ptr, ptr %3, align 8, !tbaa !22
  %9 = getelementptr inbounds nuw %struct.ShowCQTContext, ptr %8, i32 0, i32 47
  %10 = load i32, ptr %9, align 8, !tbaa !36
  %11 = load ptr, ptr %3, align 8, !tbaa !22
  %12 = getelementptr inbounds nuw %struct.ShowCQTContext, ptr %11, i32 0, i32 51
  %13 = load i32, ptr %12, align 4, !tbaa !38
  %14 = call ptr @alloc_frame_empty(i32 noundef %7, i32 noundef %10, i32 noundef %13)
  %15 = load ptr, ptr %3, align 8, !tbaa !22
  %16 = getelementptr inbounds nuw %struct.ShowCQTContext, ptr %15, i32 0, i32 2
  store ptr %14, ptr %16, align 8, !tbaa !121
  %17 = icmp ne ptr %14, null
  br i1 %17, label %19, label %18

18:                                               ; preds = %1
  store i32 -12, ptr %2, align 4
  br label %20

19:                                               ; preds = %1
  store i32 0, ptr %2, align 4
  br label %20

20:                                               ; preds = %19, %18
  %21 = load i32, ptr %2, align 4
  ret i32 %21
}