; Function Attrs: nounwind uwtable
define internal fastcc range(i32 -12, 1) i32 @init_axis_empty(ptr noundef captures(none) initializes((16, 24)) %0) unnamed_addr #1 {
  %2 = getelementptr inbounds nuw i8, ptr %0, i64 32
  %3 = load i32, ptr %2, align 8, !tbaa !65
  %4 = icmp ult i32 %3, 6
  %switch.maskindex = trunc i32 %3 to i8
  %switch.shifted = lshr i8 53, %switch.maskindex
  %switch.lobit = trunc i8 %switch.shifted to i1
  %or.cond = select i1 %4, i1 %switch.lobit, i1 false
  br i1 %or.cond, label %switch.lookup, label %convert_axis_pixel_format.exit

switch.lookup:                                    ; preds = %1
  %5 = zext nneg i32 %3 to i64
  %switch.gep = getelementptr inbounds nuw [6 x i32], ptr @switch.table.init_axis_from_font.7, i64 0, i64 %5
  %switch.load = load i32, ptr %switch.gep, align 4
  br label %convert_axis_pixel_format.exit

convert_axis_pixel_format.exit:                   ; preds = %switch.lookup, %1
  %.0.i = phi i32 [ %3, %1 ], [ %switch.load, %switch.lookup ]
  %6 = getelementptr inbounds nuw i8, ptr %0, i64 384
  %7 = load i32, ptr %6, align 8, !tbaa !33
  %8 = getelementptr inbounds nuw i8, ptr %0, i64 404
  %9 = load i32, ptr %8, align 4, !tbaa !35
  %10 = tail call fastcc ptr @alloc_frame_empty(i32 noundef %.0.i, i32 noundef %7, i32 noundef %9)
  %11 = getelementptr inbounds nuw i8, ptr %0, i64 16
  store ptr %10, ptr %11, align 8, !tbaa !128
  %.not = icmp eq ptr %10, null
  %. = select i1 %.not, i32 -12, i32 0
  ret i32 %.
}